; Function Attrs: nounwind uwtable
define internal i32 @pmix_pif_base_close() #1 {
  %.b8 = load i1, ptr @frameopen, align 1
  br i1 %.b8, label %1, label %47

1:                                                ; preds = %0
  store i1 false, ptr @frameopen, align 1
  %2 = load volatile i64, ptr getelementptr inbounds nuw (i8, ptr @pmix_if_list, i64 264), align 8, !tbaa !34
  %3 = icmp eq i64 %2, 0
  br i1 %3, label %._crit_edge, label %.lr.ph

.lr.ph:                                           ; preds = %1, %36
  %4 = load volatile i64, ptr getelementptr inbounds nuw (i8, ptr @pmix_if_list, i64 264), align 8, !tbaa !34
  %5 = add i64 %4, -1
  store volatile i64 %5, ptr getelementptr inbounds nuw (i8, ptr @pmix_if_list, i64 264), align 8, !tbaa !34
  %6 = load ptr, ptr getelementptr inbounds nuw (i8, ptr @pmix_if_list, i64 240), align 8, !tbaa !36
  %7 = getelementptr inbounds nuw i8, ptr %6, i64 128
  %8 = load volatile ptr, ptr %7, align 8, !tbaa !37
  %9 = getelementptr inbounds nuw i8, ptr %6, i64 120
  %10 = load volatile ptr, ptr %9, align 8, !tbaa !38
  %11 = getelementptr inbounds nuw i8, ptr %10, i64 128
  store volatile ptr %8, ptr %11, align 8, !tbaa !37
  %12 = load volatile ptr, ptr %9, align 8, !tbaa !38
  store ptr %12, ptr getelementptr inbounds nuw (i8, ptr @pmix_if_list, i64 240), align 8, !tbaa !36
  %13 = tail call i32 @pthread_mutex_lock(ptr noundef nonnull %6) #9
  %14 = icmp eq i32 %13, 35
  br i1 %14, label %15, label %pmix_obj_update.exit

15:                                               ; preds = %.lr.ph
  %16 = tail call ptr @__errno_location() #10
  store i32 35, ptr %16, align 4, !tbaa !24
  tail call void @perror(ptr noundef nonnull @.str.7) #11
  tail call void @abort() #12
  unreachable

pmix_obj_update.exit:                             ; preds = %.lr.ph
  %17 = getelementptr inbounds nuw i8, ptr %6, i64 48
  %18 = load i32, ptr %17, align 8, !tbaa !29
  %19 = add nsw i32 %18, -1
  store i32 %19, ptr %17, align 8, !tbaa !29
  %20 = tail call i32 @pthread_mutex_unlock(ptr noundef nonnull %6) #9
  %21 = icmp eq i32 %19, 0
  br i1 %21, label %22, label %36

22:                                               ; preds = %pmix_obj_update.exit
  %23 = getelementptr inbounds nuw i8, ptr %6, i64 40
  %24 = load ptr, ptr %23, align 8, !tbaa !28
  %25 = getelementptr inbounds nuw i8, ptr %24, i64 48
  %26 = load ptr, ptr %25, align 8, !tbaa !39
  %27 = load ptr, ptr %26, align 8, !tbaa !31
  %.not6.i = icmp eq ptr %27, null
  br i1 %.not6.i, label %pmix_obj_run_destructors.exit, label %.lr.ph.i

.lr.ph.i:                                         ; preds = %22, %.lr.ph.i
  %28 = phi ptr [ %30, %.lr.ph.i ], [ %27, %22 ]
  %.07.i = phi ptr [ %29, %.lr.ph.i ], [ %26, %22 ]
  tail call void %28(ptr noundef nonnull %6) #9
  %29 = getelementptr inbounds nuw i8, ptr %.07.i, i64 8
  %30 = load ptr, ptr %29, align 8, !tbaa !31
  %.not.i = icmp eq ptr %30, null
  br i1 %.not.i, label %pmix_obj_run_destructors.exit, label %.lr.ph.i, !llvm.loop !40

pmix_obj_run_destructors.exit:                    ; preds = %.lr.ph.i, %22
  %31 = getelementptr inbounds nuw i8, ptr %6, i64 96
  %32 = load ptr, ptr %31, align 8, !tbaa !41
  %.not9 = icmp eq ptr %32, null
  br i1 %.not9, label %35, label %33

33:                                               ; preds = %pmix_obj_run_destructors.exit
  %34 = getelementptr inbounds nuw i8, ptr %6, i64 56
  tail call void %32(ptr noundef nonnull %34, ptr noundef nonnull %6) #9
  br label %36

35:                                               ; preds = %pmix_obj_run_destructors.exit
  tail call void @free(ptr noundef nonnull %6) #9
  br label %36

36:                                               ; preds = %33, %35, %pmix_obj_update.exit
  %37 = load volatile i64, ptr getelementptr inbounds nuw (i8, ptr @pmix_if_list, i64 264), align 8, !tbaa !34
  %38 = icmp eq i64 %37, 0
  br i1 %38, label %._crit_edge, label %.lr.ph, !llvm.loop !42

._crit_edge:                                      ; preds = %36, %1
  %39 = load ptr, ptr getelementptr inbounds nuw (i8, ptr @pmix_if_list, i64 40), align 8, !tbaa !28
  %40 = getelementptr inbounds nuw i8, ptr %39, i64 48
  %41 = load ptr, ptr %40, align 8, !tbaa !39
  %42 = load ptr, ptr %41, align 8, !tbaa !31
  %.not6.i10 = icmp eq ptr %42, null
  br i1 %.not6.i10, label %pmix_obj_run_destructors.exit14, label %.lr.ph.i11

.lr.ph.i11:                                       ; preds = %._crit_edge, %.lr.ph.i11
  %43 = phi ptr [ %45, %.lr.ph.i11 ], [ %42, %._crit_edge ]
  %.07.i12 = phi ptr [ %44, %.lr.ph.i11 ], [ %41, %._crit_edge ]
  tail call void %43(ptr noundef nonnull @pmix_if_list) #9
  %44 = getelementptr inbounds nuw i8, ptr %.07.i12, i64 8
  %45 = load ptr, ptr %44, align 8, !tbaa !31
  %.not.i13 = icmp eq ptr %45, null
  br i1 %.not.i13, label %pmix_obj_run_destructors.exit14, label %.lr.ph.i11, !llvm.loop !40

pmix_obj_run_destructors.exit14:                  ; preds = %.lr.ph.i11, %._crit_edge
  %46 = tail call i32 @pmix_mca_base_framework_components_close(ptr noundef nonnull @pmix_pif_base_framework, ptr noundef null) #9
  br label %47

47:                                               ; preds = %0, %pmix_obj_run_destructors.exit14
  %.0 = phi i32 [ %46, %pmix_obj_run_destructors.exit14 ], [ 0, %0 ]
  ret i32 %.0
}